; ModuleID = '5/635.c'
source_filename = "5/635.c"
target datalayout = "e-m:e-p270:32:32-p271:32:32-p272:64:64-i64:64-f80:128-n8:16:32:64-S128"
target triple = "x86_64-pc-linux-gnu"

@.str = private unnamed_addr constant [3 x i8] c"%f\00", align 1
@.str.1 = private unnamed_addr constant [3 x i8] c"%s\00", align 1
@.str.2 = private unnamed_addr constant [7 x i8] c"error\0A\00", align 1
@.str.3 = private unnamed_addr constant [5 x i8] c"yes\0A\00", align 1
@.str.4 = private unnamed_addr constant [4 x i8] c"no\0A\00", align 1

; Function Attrs: noinline nounwind uwtable
define dso_local i32 @main() #0 {
  %1 = alloca i32, align 4
  %2 = alloca float, align 4
  %3 = alloca float, align 4
  %4 = alloca float, align 4
  %5 = alloca i32, align 4
  %6 = alloca i32, align 4
  %7 = alloca [501 x i8], align 16
  %8 = alloca [501 x i8], align 16
  store i32 0, i32* %1, align 4
  store float 0.000000e+00, float* %4, align 4
  %9 = call i32 (i8*, ...) @__isoc99_scanf(i8* getelementptr inbounds ([3 x i8], [3 x i8]* @.str, i64 0, i64 0), float* %2)
  %10 = getelementptr inbounds [501 x i8], [501 x i8]* %7, i64 0, i64 0
  %11 = call i32 (i8*, ...) @__isoc99_scanf(i8* getelementptr inbounds ([3 x i8], [3 x i8]* @.str.1, i64 0, i64 0), i8* %10)
  %12 = getelementptr inbounds [501 x i8], [501 x i8]* %8, i64 0, i64 0
  %13 = call i32 (i8*, ...) @__isoc99_scanf(i8* getelementptr inbounds ([3 x i8], [3 x i8]* @.str.1, i64 0, i64 0), i8* %12)
  store i32 0, i32* %5, align 4
  br label %14

14:                                               ; preds = %51, %0
  %15 = load i32, i32* %5, align 4
  %16 = sext i32 %15 to i64
  %17 = getelementptr inbounds [501 x i8], [501 x i8]* %7, i64 0, i64 %16
  %18 = load i8, i8* %17, align 1
  %19 = icmp ne i8 %18, 0
  br i1 %19, label %20, label %54

20:                                               ; preds = %14
  %21 = load i32, i32* %5, align 4
  %22 = sext i32 %21 to i64
  %23 = getelementptr inbounds [501 x i8], [501 x i8]* %7, i64 0, i64 %22
  %24 = load i8, i8* %23, align 1
  %25 = sext i8 %24 to i32
  %26 = icmp eq i32 %25, 65
  br i1 %26, label %50, label %27

27:                                               ; preds = %20
  %28 = load i32, i32* %5, align 4
  %29 = sext i32 %28 to i64
  %30 = getelementptr inbounds [501 x i8], [501 x i8]* %7, i64 0, i64 %29
  %31 = load i8, i8* %30, align 1
  %32 = sext i8 %31 to i32
  %33 = icmp eq i32 %32, 84
  br i1 %33, label %50, label %34

34:                                               ; preds = %27
  %35 = load i32, i32* %5, align 4
  %36 = sext i32 %35 to i64
  %37 = getelementptr inbounds [501 x i8], [501 x i8]* %7, i64 0, i64 %36
  %38 = load i8, i8* %37, align 1
  %39 = sext i8 %38 to i32
  %40 = icmp eq i32 %39, 71
  br i1 %40, label %50, label %41

41:                                               ; preds = %34
  %42 = load i32, i32* %5, align 4
  %43 = sext i32 %42 to i64
  %44 = getelementptr inbounds [501 x i8], [501 x i8]* %7, i64 0, i64 %43
  %45 = load i8, i8* %44, align 1
  %46 = sext i8 %45 to i32
  %47 = icmp eq i32 %46, 67
  br i1 %47, label %50, label %48

48:                                               ; preds = %41
  %49 = call i32 (i8*, ...) @printf(i8* getelementptr inbounds ([7 x i8], [7 x i8]* @.str.2, i64 0, i64 0))
  store i32 0, i32* %1, align 4
  br label %140

50:                                               ; preds = %41, %34, %27, %20
  br label %51

51:                                               ; preds = %50
  %52 = load i32, i32* %5, align 4
  %53 = add nsw i32 %52, 1
  store i32 %53, i32* %5, align 4
  br label %14

54:                                               ; preds = %14
  store i32 0, i32* %6, align 4
  br label %55

55:                                               ; preds = %92, %54
  %56 = load i32, i32* %6, align 4
  %57 = sext i32 %56 to i64
  %58 = getelementptr inbounds [501 x i8], [501 x i8]* %8, i64 0, i64 %57
  %59 = load i8, i8* %58, align 1
  %60 = icmp ne i8 %59, 0
  br i1 %60, label %61, label %95

61:                                               ; preds = %55
  %62 = load i32, i32* %6, align 4
  %63 = sext i32 %62 to i64
  %64 = getelementptr inbounds [501 x i8], [501 x i8]* %8, i64 0, i64 %63
  %65 = load i8, i8* %64, align 1
  %66 = sext i8 %65 to i32
  %67 = icmp eq i32 %66, 65
  br i1 %67, label %91, label %68

68:                                               ; preds = %61
  %69 = load i32, i32* %6, align 4
  %70 = sext i32 %69 to i64
  %71 = getelementptr inbounds [501 x i8], [501 x i8]* %8, i64 0, i64 %70
  %72 = load i8, i8* %71, align 1
  %73 = sext i8 %72 to i32
  %74 = icmp eq i32 %73, 84
  br i1 %74, label %91, label %75

75:                                               ; preds = %68
  %76 = load i32, i32* %6, align 4
  %77 = sext i32 %76 to i64
  %78 = getelementptr inbounds [501 x i8], [501 x i8]* %8, i64 0, i64 %77
  %79 = load i8, i8* %78, align 1
  %80 = sext i8 %79 to i32
  %81 = icmp eq i32 %80, 71
  br i1 %81, label %91, label %82

82:                                               ; preds = %75
  %83 = load i32, i32* %6, align 4
  %84 = sext i32 %83 to i64
  %85 = getelementptr inbounds [501 x i8], [501 x i8]* %8, i64 0, i64 %84
  %86 = load i8, i8* %85, align 1
  %87 = sext i8 %86 to i32
  %88 = icmp eq i32 %87, 67
  br i1 %88, label %91, label %89

89:                                               ; preds = %82
  %90 = call i32 (i8*, ...) @printf(i8* getelementptr inbounds ([7 x i8], [7 x i8]* @.str.2, i64 0, i64 0))
  store i32 0, i32* %1, align 4
  br label %140

91:                                               ; preds = %82, %75, %68, %61
  br label %92

92:                                               ; preds = %91
  %93 = load i32, i32* %6, align 4
  %94 = add nsw i32 %93, 1
  store i32 %94, i32* %6, align 4
  br label %55

95:                                               ; preds = %55
  %96 = load i32, i32* %5, align 4
  %97 = load i32, i32* %6, align 4
  %98 = icmp ne i32 %96, %97
  br i1 %98, label %99, label %101

99:                                               ; preds = %95
  %100 = call i32 (i8*, ...) @printf(i8* getelementptr inbounds ([7 x i8], [7 x i8]* @.str.2, i64 0, i64 0))
  store i32 0, i32* %1, align 4
  br label %140

101:                                              ; preds = %95
  store i32 0, i32* %5, align 4
  br label %102

102:                                              ; preds = %124, %101
  %103 = load i32, i32* %5, align 4
  %104 = sext i32 %103 to i64
  %105 = getelementptr inbounds [501 x i8], [501 x i8]* %7, i64 0, i64 %104
  %106 = load i8, i8* %105, align 1
  %107 = icmp ne i8 %106, 0
  br i1 %107, label %108, label %127

108:                                              ; preds = %102
  %109 = load i32, i32* %5, align 4
  %110 = sext i32 %109 to i64
  %111 = getelementptr inbounds [501 x i8], [501 x i8]* %7, i64 0, i64 %110
  %112 = load i8, i8* %111, align 1
  %113 = sext i8 %112 to i32
  %114 = load i32, i32* %5, align 4
  %115 = sext i32 %114 to i64
  %116 = getelementptr inbounds [501 x i8], [501 x i8]* %8, i64 0, i64 %115
  %117 = load i8, i8* %116, align 1
  %118 = sext i8 %117 to i32
  %119 = icmp eq i32 %113, %118
  br i1 %119, label %120, label %123

120:                                              ; preds = %108
  %121 = load float, float* %4, align 4
  %122 = fadd float %121, 1.000000e+00
  store float %122, float* %4, align 4
  br label %123

123:                                              ; preds = %120, %108
  br label %124

124:                                              ; preds = %123
  %125 = load i32, i32* %5, align 4
  %126 = add nsw i32 %125, 1
  store i32 %126, i32* %5, align 4
  br label %102

127:                                              ; preds = %102
  %128 = load float, float* %4, align 4
  %129 = load i32, i32* %6, align 4
  %130 = sitofp i32 %129 to float
  %131 = fdiv float %128, %130
  store float %131, float* %3, align 4
  %132 = load float, float* %3, align 4
  %133 = load float, float* %2, align 4
  %134 = fcmp ogt float %132, %133
  br i1 %134, label %135, label %137

135:                                              ; preds = %127
  %136 = call i32 (i8*, ...) @printf(i8* getelementptr inbounds ([5 x i8], [5 x i8]* @.str.3, i64 0, i64 0))
  br label %139

137:                                              ; preds = %127
  %138 = call i32 (i8*, ...) @printf(i8* getelementptr inbounds ([4 x i8], [4 x i8]* @.str.4, i64 0, i64 0))
  br label %139

139:                                              ; preds = %137, %135
  store i32 0, i32* %1, align 4
  br label %140

140:                                              ; preds = %139, %99, %89, %48
  %141 = load i32, i32* %1, align 4
  ret i32 %141
}

declare dso_local i32 @__isoc99_scanf(i8*, ...) #1

declare dso_local i32 @printf(i8*, ...) #1


!llvm.module.flags = !{!0}
!llvm.ident = !{!1}

!0 = !{i32 1, !"wchar_size", i32 4}
!1 = !{!"clang version 10.0.0-4ubuntu1 "}
